; Function Attrs: mustprogress nounwind uwtable
define void @_ZN5boost5timer9cpu_timer4stopEv(ptr nocapture noundef nonnull align 8 dereferenceable(25) %0) local_unnamed_addr #1 align 2 personality ptr @__gxx_personality_v0 {
  %2 = alloca %struct.tms, align 8
  %3 = getelementptr inbounds nuw i8, ptr %0, i64 24
  %4 = load i8, ptr %3, align 8, !tbaa !45, !range !55, !noundef !56
  %5 = trunc nuw i8 %4 to i1
  br i1 %5, label %46, label %6

6:                                                ; preds = %1
  store i8 1, ptr %3, align 8, !tbaa !45
  %7 = load atomic i8, ptr @_ZGVZN12_GLOBAL__N_113get_cpu_timesERN5boost5timer9cpu_timesEE2tf acquire, align 8
  %8 = icmp eq i8 %7, 0
  br i1 %8, label %9, label %17, !prof !48

9:                                                ; preds = %6
  %10 = tail call i32 @__cxa_guard_acquire(ptr nonnull @_ZGVZN12_GLOBAL__N_113get_cpu_timesERN5boost5timer9cpu_timesEE2tf) #16
  %.not.i = icmp eq i32 %10, 0
  br i1 %.not.i, label %17, label %11

11:                                               ; preds = %9
  %12 = tail call i64 @sysconf(i32 noundef 2) #16
  %13 = icmp slt i64 %12, 1
  br i1 %13, label %_ZN12_GLOBAL__N_111tick_factorEv.exit.i, label %14

14:                                               ; preds = %11
  %15 = udiv i64 1000000000, %12
  %16 = icmp ugt i64 %12, 1000000000
  %spec.store.select.i.i = select i1 %16, i64 -1, i64 %15
  br label %_ZN12_GLOBAL__N_111tick_factorEv.exit.i

_ZN12_GLOBAL__N_111tick_factorEv.exit.i:          ; preds = %14, %11
  %.0.i.i = phi i64 [ %spec.store.select.i.i, %14 ], [ -1, %11 ]
  store i64 %.0.i.i, ptr @_ZZN12_GLOBAL__N_113get_cpu_timesERN5boost5timer9cpu_timesEE2tf, align 8, !tbaa !49
  tail call void @__cxa_guard_release(ptr nonnull @_ZGVZN12_GLOBAL__N_113get_cpu_timesERN5boost5timer9cpu_timesEE2tf) #16
  br label %17

17:                                               ; preds = %_ZN12_GLOBAL__N_111tick_factorEv.exit.i, %9, %6
  %18 = load i64, ptr @_ZZN12_GLOBAL__N_113get_cpu_timesERN5boost5timer9cpu_timesEE2tf, align 8, !tbaa !49
  %19 = icmp eq i64 %18, -1
  br i1 %19, label %_ZN12_GLOBAL__N_113get_cpu_timesERN5boost5timer9cpu_timesE.exit, label %20

20:                                               ; preds = %17
  call void @llvm.lifetime.start.p0(i64 32, ptr nonnull %2) #16
  %21 = call i64 @times(ptr noundef nonnull %2) #16
  %22 = icmp eq i64 %21, -1
  br i1 %22, label %37, label %23

23:                                               ; preds = %20
  %24 = load i64, ptr @_ZZN12_GLOBAL__N_113get_cpu_timesERN5boost5timer9cpu_timesEE2tf, align 8, !tbaa !49
  %25 = mul nsw i64 %24, %21
  %26 = getelementptr inbounds nuw i8, ptr %2, i64 8
  %27 = load i64, ptr %26, align 8, !tbaa !50
  %28 = getelementptr inbounds nuw i8, ptr %2, i64 24
  %29 = load i64, ptr %28, align 8, !tbaa !52
  %30 = add nsw i64 %29, %27
  %31 = mul nsw i64 %30, %24
  %32 = load i64, ptr %2, align 8, !tbaa !53
  %33 = getelementptr inbounds nuw i8, ptr %2, i64 16
  %34 = load i64, ptr %33, align 8, !tbaa !54
  %35 = add nsw i64 %34, %32
  %36 = mul nsw i64 %35, %24
  br label %37

37:                                               ; preds = %23, %20
  %.sroa.0.0 = phi i64 [ -1, %20 ], [ %25, %23 ]
  %.sroa.5.0 = phi i64 [ -1, %20 ], [ %36, %23 ]
  %.sroa.7.0 = phi i64 [ -1, %20 ], [ %31, %23 ]
  call void @llvm.lifetime.end.p0(i64 32, ptr nonnull %2) #16
  br label %_ZN12_GLOBAL__N_113get_cpu_timesERN5boost5timer9cpu_timesE.exit

_ZN12_GLOBAL__N_113get_cpu_timesERN5boost5timer9cpu_timesE.exit: ; preds = %37, %17
  %.sroa.0.1 = phi i64 [ -1, %17 ], [ %.sroa.0.0, %37 ]
  %.sroa.5.1 = phi i64 [ -1, %17 ], [ %.sroa.5.0, %37 ]
  %.sroa.7.1 = phi i64 [ -1, %17 ], [ %.sroa.7.0, %37 ]
  %38 = load i64, ptr %0, align 8, !tbaa !57
  %39 = sub nsw i64 %.sroa.0.1, %38
  store i64 %39, ptr %0, align 8, !tbaa !57
  %40 = getelementptr inbounds nuw i8, ptr %0, i64 8
  %41 = load i64, ptr %40, align 8, !tbaa !58
  %42 = sub nsw i64 %.sroa.5.1, %41
  store i64 %42, ptr %40, align 8, !tbaa !58
  %43 = getelementptr inbounds nuw i8, ptr %0, i64 16
  %44 = load i64, ptr %43, align 8, !tbaa !59
  %45 = sub nsw i64 %.sroa.7.1, %44
  store i64 %45, ptr %43, align 8, !tbaa !59
  br label %46

46:                                               ; preds = %1, %_ZN12_GLOBAL__N_113get_cpu_timesERN5boost5timer9cpu_timesE.exit
  ret void
}